Certificate:
    Data:
        Version: 3 (0x2)
        Serial Number: 1 (0x1)
        Signature Algorithm: sha256WithRSAEncryption
        Issuer: C=ES, ST=Madrid, L=Madrid, O=My Organization, OU=Root CA, CN=Root Certificate Authority
        Validity
            Not Before: Dec  6 10:56:17 2024 GMT
            Not After : Dec  6 10:56:17 2025 GMT
        Subject: C=ES, ST=Madrid, O=My Organization, OU=Root CA, CN=Root Certificate Authority
        Subject Public Key Info:
            Public Key Algorithm: rsaEncryption
                Public-Key: (2048 bit)
                Modulus:
                    00:b6:19:c3:66:45:a2:95:38:d9:9e:74:c9:50:89:
                    0d:98:d5:05:8e:38:2a:1e:e6:a4:7e:d2:b0:a2:3a:
                    94:5b:1a:23:dc:d0:23:1d:c6:da:4e:67:bd:e6:55:
                    14:35:93:bf:f0:2d:fe:29:00:4b:bd:24:83:18:ad:
                    b2:bb:0d:6f:58:f4:e5:34:75:ff:a1:80:df:27:31:
                    9a:01:0d:ec:e2:60:ef:93:4d:97:d7:90:56:4f:f6:
                    f1:fb:2b:d2:0e:f0:a7:f4:f2:da:f7:8b:89:32:1d:
                    58:a4:47:30:0a:a0:a6:88:2e:37:14:ad:0f:6b:65:
                    bd:37:60:92:7e:2e:b0:96:06:dd:9c:7e:80:f4:49:
                    7d:c8:fe:88:0c:62:75:a2:fd:47:0b:42:21:be:fd:
                    3d:f5:5a:5c:c3:ab:f3:3d:c1:91:e4:42:ca:f4:d7:
                    6e:70:c3:e3:38:f7:a1:4c:48:9b:8e:cd:67:4f:83:
                    40:83:11:c6:30:38:1f:c7:e4:4a:3a:7d:fd:35:0d:
                    3c:f3:da:3c:1d:e2:46:3a:0b:66:95:ea:b7:80:eb:
                    d9:6a:39:a9:dd:bb:a4:e9:6e:1e:d1:88:b0:46:e9:
                    9f:73:da:65:63:9b:83:ae:9a:0e:34:e7:c1:34:2b:
                    4c:f1:3d:41:8c:12:9e:fe:8c:6f:95:55:aa:d3:82:
                    51:bb
                Exponent: 65537 (0x10001)
        X509v3 extensions:
            X509v3 Subject Key Identifier: 
                DF:6E:AA:06:55:A9:31:0C:E5:27:BD:37:D1:1D:47:0C:9C:52:81:0F
            X509v3 Authority Key Identifier: 
                DB:55:70:AB:13:29:46:03:E6:7C:E6:57:A1:09:B8:56:F9:7A:62:EF
    Signature Algorithm: sha256WithRSAEncryption
    Signature Value:
        6d:ae:69:fe:a2:b9:94:86:ea:06:e0:1e:4e:27:87:e1:e8:7d:
        5e:3f:06:25:ae:3f:d8:f0:1f:f6:dd:be:23:71:d1:85:d0:92:
        ca:7d:6f:51:2b:5d:54:8f:78:a9:73:81:38:c0:31:fc:49:98:
        12:d8:d9:d6:14:23:8a:37:cd:e2:3d:21:98:93:d1:0e:0d:3e:
        4a:d5:c9:e4:32:5d:3e:ca:70:10:7f:2f:86:e8:d9:c4:93:e6:
        09:34:18:5e:a8:65:fe:84:73:34:0e:e8:89:0e:d0:be:7d:e1:
        4c:f6:60:fb:82:44:78:30:19:c3:c0:23:f6:6b:da:2c:aa:b7:
        fc:8b:2c:dc:a9:dd:d0:00:b0:46:fd:06:b3:5c:69:e7:1a:e5:
        10:22:3d:58:d3:a8:02:df:bc:ea:dc:38:a6:aa:f3:7f:17:6a:
        df:d8:1f:e9:57:7a:87:16:29:a6:bf:fa:86:e7:3d:c4:d9:72:
        b1:ce:3f:98:cf:f2:37:55:da:65:d0:af:4f:2a:0b:03:55:d4:
        68:bd:b8:55:97:a1:ae:49:a7:9a:2b:5d:3e:05:57:b6:24:8a:
        27:af:93:2c:09:69:b0:ee:80:c4:09:24:f3:36:69:46:0c:05:
        ba:14:13:d2:c3:db:c1:38:3f:29:8d:c3:d1:9b:8f:17:a8:4e:
        5b:ae:2f:48
-----BEGIN CERTIFICATE-----
MIIDrTCCApWgAwIBAgIBATANBgkqhkiG9w0BAQsFADCBgDELMAkGA1UEBhMCRVMx
DzANBgNVBAgMBk1hZHJpZDEPMA0GA1UEBwwGTWFkcmlkMRgwFgYDVQQKDA9NeSBP
cmdhbml6YXRpb24xEDAOBgNVBAsMB1Jvb3QgQ0ExIzAhBgNVBAMMGlJvb3QgQ2Vy
dGlmaWNhdGUgQXV0aG9yaXR5MB4XDTI0MTIwNjEwNTYxN1oXDTI1MTIwNjEwNTYx
N1owbzELMAkGA1UEBhMCRVMxDzANBgNVBAgMBk1hZHJpZDEYMBYGA1UECgwPTXkg
T3JnYW5pemF0aW9uMRAwDgYDVQQLDAdSb290IENBMSMwIQYDVQQDDBpSb290IENl
cnRpZmljYXRlIEF1dGhvcml0eTCCASIwDQYJKoZIhvcNAQEBBQADggEPADCCAQoC
ggEBALYZw2ZFopU42Z50yVCJDZjVBY44Kh7mpH7SsKI6lFsaI9zQIx3G2k5nveZV
FDWTv/At/ikAS70kgxitsrsNb1j05TR1/6GA3ycxmgEN7OJg75NNl9eQVk/28fsr
0g7wp/Ty2veLiTIdWKRHMAqgpoguNxStD2tlvTdgkn4usJYG3Zx+gPRJfcj+iAxi
daL9RwtCIb79PfVaXMOr8z3BkeRCyvTXbnDD4zj3oUxIm47NZ0+DQIMRxjA4H8fk
Sjp9/TUNPPPaPB3iRjoLZpXqt4Dr2Wo5qd27pOluHtGIsEbpn3PaZWObg66aDjTn
wTQrTPE9QYwSnv6Mb5VVqtOCUbsCAwEAAaNCMEAwHQYDVR0OBBYEFN9uqgZVqTEM
5Se9N9EdRwycUoEPMB8GA1UdIwQYMBaAFNtVcKsTKUYD5nzmV6EJuFb5emLvMA0G
CSqGSIb3DQEBCwUAA4IBAQBtrmn+ormUhuoG4B5OJ4fh6H1ePwYlrj/Y8B/23b4j
cdGF0JLKfW9RK11Uj3ipc4E4wDH8SZgS2NnWFCOKN83iPSGYk9EODT5K1cnkMl0+
ynAQfy+G6NnEk+YJNBheqGX+hHM0DuiJDtC+feFM9mD7gkR4MBnDwCP2a9osqrf8
iyzcqd3QALBG/QazXGnnGuUQIj1Y06gC37zq3DimqvN/F2rf2B/pV3qHFimmv/qG
5z3E2XKxzj+Yz/I3Vdpl0K9PKgsDVdRovbhVl6GuSaeaK10+BVe2JIonr5MsCWmw
7oDECSTzNmlGDAW6FBPSw9vBOD8pjcPRm48XqE5bri9I
-----END CERTIFICATE-----
