Certificate:
    Data:
        Version: 3 (0x2)
        Serial Number: 2 (0x2)
        Signature Algorithm: sha256WithRSAEncryption
        Issuer: C=ES, ST=Madrid, L=Madrid, O=My Organization, OU=Root CA, CN=Root Certificate Authority
        Validity
            Not Before: Dec  6 11:00:33 2024 GMT
            Not After : Dec  6 11:00:33 2025 GMT
        Subject: C=ES, ST=Madrid, O=My Organization, OU=User, CN=Usuario-2
        Subject Public Key Info:
            Public Key Algorithm: rsaEncryption
                Public-Key: (2048 bit)
                Modulus:
                    00:d8:e1:ca:f9:2d:a9:52:72:97:30:ec:fc:fc:d5:
                    c9:a1:1c:cd:8f:63:d5:13:40:21:9d:11:43:53:c3:
                    60:97:2a:86:91:3a:14:7d:09:e6:e2:5a:0e:ef:59:
                    4d:dc:1e:4e:a2:c6:79:78:b5:8d:ff:db:3a:09:f3:
                    d3:4a:46:4a:0f:99:d6:80:8b:e2:db:dd:c0:e2:18:
                    01:1a:18:f2:e0:6d:f5:18:40:21:61:da:28:85:9f:
                    0d:39:9d:bd:c7:b1:17:ac:fb:a4:31:d4:69:b5:eb:
                    1b:ca:c0:f8:1b:e0:92:c4:fc:98:0e:b5:b9:45:a0:
                    06:5e:47:d3:40:2c:f1:a9:75:6e:09:5d:24:90:25:
                    ca:bc:1b:f2:7f:41:c6:6e:94:f5:3b:2e:ab:9d:6d:
                    d6:db:e6:31:e8:7e:a4:2f:d7:9c:1f:79:57:78:11:
                    57:27:7b:bd:4e:7b:85:55:a7:61:23:82:28:3c:dd:
                    31:e2:16:ff:0a:2c:b1:5c:48:88:af:63:5b:b7:c8:
                    43:eb:63:33:2b:88:77:2f:2e:7b:5d:3c:33:89:86:
                    aa:98:65:22:5d:12:e7:61:a3:4d:41:64:8e:f5:fc:
                    85:94:63:54:5b:57:48:99:a2:d7:d0:95:1a:53:08:
                    00:49:57:bf:73:61:b6:2b:0b:18:b8:9d:d0:b1:a5:
                    5b:01
                Exponent: 65537 (0x10001)
        X509v3 extensions:
            X509v3 Subject Key Identifier: 
                47:16:D9:1A:E7:44:84:F6:DB:ED:2C:92:9F:92:0D:B4:64:3A:46:8D
            X509v3 Authority Key Identifier: 
                DB:55:70:AB:13:29:46:03:E6:7C:E6:57:A1:09:B8:56:F9:7A:62:EF
    Signature Algorithm: sha256WithRSAEncryption
    Signature Value:
        35:e7:aa:cd:1d:dd:7b:bd:a5:2e:46:0a:c6:77:29:fe:6b:37:
        1d:5f:fd:99:c2:31:81:65:e1:3a:b3:ce:8c:79:0f:60:87:5d:
        f6:8a:ed:28:d1:bb:2f:f8:b5:6b:b0:17:57:35:33:e4:5c:f9:
        f5:72:16:d0:89:8b:21:72:b8:e1:15:a0:14:d5:98:29:6f:35:
        01:3f:b3:af:2a:86:e3:b6:d8:c4:9c:5d:c6:a1:b9:a4:40:b9:
        df:b9:a4:da:86:1b:ff:78:28:43:a4:6b:cb:fd:a1:1c:29:a1:
        c6:84:6b:e7:31:db:a5:84:70:a3:33:ac:75:e9:20:13:3f:1e:
        52:4f:82:e7:ee:d3:62:40:4b:f5:67:6d:97:c8:04:ff:ed:b2:
        b2:3a:38:75:60:a7:31:06:7d:ab:84:4d:9c:97:06:c1:c2:89:
        f8:e8:a1:92:87:a4:59:a6:d9:9c:42:dd:32:f3:7e:3a:8b:7c:
        68:de:1e:31:93:94:12:e3:64:a6:3e:92:c0:a9:68:ac:bd:b4:
        71:35:fc:6d:9c:c0:8d:1d:fe:81:f7:73:23:c0:f6:a6:f1:a9:
        aa:51:54:e4:58:fe:67:6e:99:01:d0:89:32:35:8d:ef:b6:fc:
        1e:88:fc:36:62:59:e6:fc:93:cf:2e:29:01:7b:0d:3b:80:9a:
        60:24:e7:6c
-----BEGIN CERTIFICATE-----
MIIDmTCCAoGgAwIBAgIBAjANBgkqhkiG9w0BAQsFADCBgDELMAkGA1UEBhMCRVMx
DzANBgNVBAgMBk1hZHJpZDEPMA0GA1UEBwwGTWFkcmlkMRgwFgYDVQQKDA9NeSBP
cmdhbml6YXRpb24xEDAOBgNVBAsMB1Jvb3QgQ0ExIzAhBgNVBAMMGlJvb3QgQ2Vy
dGlmaWNhdGUgQXV0aG9yaXR5MB4XDTI0MTIwNjExMDAzM1oXDTI1MTIwNjExMDAz
M1owWzELMAkGA1UEBhMCRVMxDzANBgNVBAgMBk1hZHJpZDEYMBYGA1UECgwPTXkg
T3JnYW5pemF0aW9uMQ0wCwYDVQQLDARVc2VyMRIwEAYDVQQDDAlVc3VhcmlvLTIw
ggEiMA0GCSqGSIb3DQEBAQUAA4IBDwAwggEKAoIBAQDY4cr5LalScpcw7Pz81cmh
HM2PY9UTQCGdEUNTw2CXKoaROhR9CebiWg7vWU3cHk6ixnl4tY3/2zoJ89NKRkoP
mdaAi+Lb3cDiGAEaGPLgbfUYQCFh2iiFnw05nb3HsRes+6Qx1Gm16xvKwPgb4JLE
/JgOtblFoAZeR9NALPGpdW4JXSSQJcq8G/J/QcZulPU7Lqudbdbb5jHofqQv15wf
eVd4EVcne71Oe4VVp2Ejgig83THiFv8KLLFcSIivY1u3yEPrYzMriHcvLntdPDOJ
hqqYZSJdEudho01BZI71/IWUY1RbV0iZotfQlRpTCABJV79zYbYrCxi4ndCxpVsB
AgMBAAGjQjBAMB0GA1UdDgQWBBRHFtka50SE9tvtLJKfkg20ZDpGjTAfBgNVHSME
GDAWgBTbVXCrEylGA+Z85lehCbhW+Xpi7zANBgkqhkiG9w0BAQsFAAOCAQEANeeq
zR3de72lLkYKxncp/ms3HV/9mcIxgWXhOrPOjHkPYIdd9ortKNG7L/i1a7AXVzUz
5Fz59XIW0ImLIXK44RWgFNWYKW81AT+zryqG47bYxJxdxqG5pEC537mk2oYb/3go
Q6Rry/2hHCmhxoRr5zHbpYRwozOsdekgEz8eUk+C5+7TYkBL9Wdtl8gE/+2ysjo4
dWCnMQZ9q4RNnJcGwcKJ+OihkoekWabZnELdMvN+Oot8aN4eMZOUEuNkpj6SwKlo
rL20cTX8bZzAjR3+gfdzI8D2pvGpqlFU5Fj+Z26ZAdCJMjWN77b8Hoj8NmJZ5vyT
zy4pAXsNO4CaYCTnbA==
-----END CERTIFICATE-----
