Certificate:
    Data:
        Version: 3 (0x2)
        Serial Number: 3 (0x3)
        Signature Algorithm: sha256WithRSAEncryption
        Issuer: C=ES, ST=Madrid, L=Madrid, O=My Organization, OU=Root CA, CN=Root Certificate Authority
        Validity
            Not Before: Dec  6 11:42:09 2024 GMT
            Not After : Dec  6 11:42:09 2025 GMT
        Subject: C=ES, ST=Madrid, O=My Organization, OU=User, CN=Usuario-1
        Subject Public Key Info:
            Public Key Algorithm: rsaEncryption
                Public-Key: (2048 bit)
                Modulus:
                    00:e4:71:8f:30:a2:dd:7c:70:b4:21:28:72:40:50:
                    27:08:7d:57:aa:ee:94:bc:45:1a:ed:83:66:12:19:
                    c0:5c:8c:7a:05:8c:72:b0:73:51:bd:ae:50:f5:9d:
                    ad:7b:75:95:11:2f:69:58:81:94:a1:1c:a8:be:e7:
                    7c:c7:de:66:77:da:9e:53:44:0d:4d:8f:f6:f8:3c:
                    97:49:1e:aa:55:68:37:4e:af:84:6d:54:23:5e:eb:
                    85:4b:d6:32:7d:c1:35:6e:e4:ab:56:17:84:b0:19:
                    92:6e:6b:94:ee:86:9f:23:ad:7e:ba:64:78:e8:95:
                    09:ad:5e:7f:30:54:9d:d5:a4:a5:59:a9:36:c0:bc:
                    8f:7e:03:ff:be:92:8b:44:6f:12:28:23:fd:d7:44:
                    fd:31:32:21:a6:87:b4:db:9a:b3:03:dd:83:51:39:
                    d0:ce:bb:e0:45:1a:45:ad:2e:8a:1e:79:52:54:66:
                    85:55:9d:21:a5:2c:91:ba:1e:44:b5:39:32:41:a3:
                    d7:7c:80:82:9b:c4:f5:4c:79:d3:5d:c7:00:ea:f2:
                    43:14:c4:ce:6c:e7:19:93:d0:dc:aa:08:b9:64:52:
                    5b:62:66:c9:e9:53:2a:c9:84:4d:23:11:72:1e:88:
                    4f:57:6d:24:9e:a1:7d:27:7f:0f:fc:18:c1:11:ae:
                    00:17
                Exponent: 65537 (0x10001)
        X509v3 extensions:
            X509v3 Subject Key Identifier: 
                B9:F4:CC:5D:B0:FB:CC:91:82:75:D7:45:62:4F:F1:8A:97:00:49:A0
            X509v3 Authority Key Identifier: 
                DB:55:70:AB:13:29:46:03:E6:7C:E6:57:A1:09:B8:56:F9:7A:62:EF
    Signature Algorithm: sha256WithRSAEncryption
    Signature Value:
        03:24:8f:01:a9:1a:95:37:57:69:22:fe:6b:f4:16:d0:b6:9e:
        3f:18:08:70:ee:56:13:8c:3a:4e:9e:cc:86:a7:dc:24:c4:6f:
        93:81:b3:55:0a:1c:a6:4a:54:6a:c0:ec:14:f2:28:f0:8b:57:
        05:65:3f:7f:05:d8:87:48:77:ce:85:00:ba:30:eb:03:fc:55:
        36:82:6e:31:04:60:ec:fc:1e:44:14:f2:20:f4:32:12:7a:54:
        5a:fa:44:ba:5e:e2:2b:c8:80:ee:79:ac:06:68:b1:cb:b8:f7:
        7c:af:08:ac:35:be:08:1c:6a:e6:6c:67:e7:71:4d:c1:80:da:
        80:23:55:13:99:c3:c1:d8:a0:04:d8:5a:b5:85:44:7a:6a:29:
        b8:30:59:ac:99:f1:27:3f:3a:48:cc:ef:a7:9f:b9:a7:96:97:
        67:21:f6:7c:d2:fb:2c:ba:53:2e:7b:a9:bc:6c:e4:55:27:a8:
        1f:06:51:c3:b9:fe:0e:0c:1d:a6:72:ea:7f:78:fc:60:2d:9a:
        9e:c5:a9:d3:46:c5:09:fc:f5:86:ec:8e:88:d7:3d:25:7c:23:
        50:b5:1a:32:da:96:4d:d4:fa:84:ad:45:93:70:14:57:3d:d9:
        1f:7a:71:61:87:f5:b8:54:aa:8b:4c:e0:b8:3c:fb:fd:30:1a:
        36:2b:b8:d2
-----BEGIN CERTIFICATE-----
MIIDmTCCAoGgAwIBAgIBAzANBgkqhkiG9w0BAQsFADCBgDELMAkGA1UEBhMCRVMx
DzANBgNVBAgMBk1hZHJpZDEPMA0GA1UEBwwGTWFkcmlkMRgwFgYDVQQKDA9NeSBP
cmdhbml6YXRpb24xEDAOBgNVBAsMB1Jvb3QgQ0ExIzAhBgNVBAMMGlJvb3QgQ2Vy
dGlmaWNhdGUgQXV0aG9yaXR5MB4XDTI0MTIwNjExNDIwOVoXDTI1MTIwNjExNDIw
OVowWzELMAkGA1UEBhMCRVMxDzANBgNVBAgMBk1hZHJpZDEYMBYGA1UECgwPTXkg
T3JnYW5pemF0aW9uMQ0wCwYDVQQLDARVc2VyMRIwEAYDVQQDDAlVc3VhcmlvLTEw
ggEiMA0GCSqGSIb3DQEBAQUAA4IBDwAwggEKAoIBAQDkcY8wot18cLQhKHJAUCcI
fVeq7pS8RRrtg2YSGcBcjHoFjHKwc1G9rlD1na17dZURL2lYgZShHKi+53zH3mZ3
2p5TRA1Nj/b4PJdJHqpVaDdOr4RtVCNe64VL1jJ9wTVu5KtWF4SwGZJua5Tuhp8j
rX66ZHjolQmtXn8wVJ3VpKVZqTbAvI9+A/++kotEbxIoI/3XRP0xMiGmh7TbmrMD
3YNROdDOu+BFGkWtLooeeVJUZoVVnSGlLJG6HkS1OTJBo9d8gIKbxPVMedNdxwDq
8kMUxM5s5xmT0NyqCLlkUltiZsnpUyrJhE0jEXIeiE9XbSSeoX0nfw/8GMERrgAX
AgMBAAGjQjBAMB0GA1UdDgQWBBS59MxdsPvMkYJ110ViT/GKlwBJoDAfBgNVHSME
GDAWgBTbVXCrEylGA+Z85lehCbhW+Xpi7zANBgkqhkiG9w0BAQsFAAOCAQEAAySP
AakalTdXaSL+a/QW0LaePxgIcO5WE4w6Tp7MhqfcJMRvk4GzVQocpkpUasDsFPIo
8ItXBWU/fwXYh0h3zoUAujDrA/xVNoJuMQRg7PweRBTyIPQyEnpUWvpEul7iK8iA
7nmsBmixy7j3fK8IrDW+CBxq5mxn53FNwYDagCNVE5nDwdigBNhatYVEemopuDBZ
rJnxJz86SMzvp5+5p5aXZyH2fNL7LLpTLnupvGzkVSeoHwZRw7n+DgwdpnLqf3j8
YC2ansWp00bFCfz1huyOiNc9JXwjULUaMtqWTdT6hK1Fk3AUVz3ZH3pxYYf1uFSq
i0zguDz7/TAaNiu40g==
-----END CERTIFICATE-----
